; Function Attrs: nounwind uwtable
define i64 @ZSTDv05_decompressBlock(ptr noundef %0, ptr noundef %1, i64 noundef %2, ptr noundef %3, i64 noundef %4) local_unnamed_addr #9 {
  %6 = getelementptr inbounds nuw i8, ptr %0, i64 26640
  %7 = load ptr, ptr %6, align 8, !tbaa !76
  %.not.i = icmp eq ptr %1, %7
  br i1 %.not.i, label %ZSTDv05_checkContinuity.exit, label %8

8:                                                ; preds = %5
  %9 = getelementptr inbounds nuw i8, ptr %0, i64 26664
  store ptr %7, ptr %9, align 8, !tbaa !77
  %10 = getelementptr inbounds nuw i8, ptr %0, i64 26648
  %11 = load ptr, ptr %10, align 8, !tbaa !78
  %12 = ptrtoint ptr %7 to i64
  %13 = ptrtoint ptr %11 to i64
  %.neg.i = sub i64 %13, %12
  %14 = getelementptr inbounds i8, ptr %1, i64 %.neg.i
  %15 = getelementptr inbounds nuw i8, ptr %0, i64 26656
  store ptr %14, ptr %15, align 8, !tbaa !79
  store ptr %1, ptr %10, align 8, !tbaa !78
  store ptr %1, ptr %6, align 8, !tbaa !76
  br label %ZSTDv05_checkContinuity.exit

ZSTDv05_checkContinuity.exit:                     ; preds = %5, %8
  %16 = tail call fastcc i64 @ZSTDv05_decompressBlock_internal(ptr noundef nonnull %0, ptr noundef %1, i64 noundef %2, ptr noundef %3, i64 noundef %4)
  ret i64 %16
}